; Function Attrs: mustprogress nofree norecurse nosync nounwind willreturn memory(argmem: readwrite) uwtable
define void @_ZNK5Ipopt15SolveStatistics15InfeasibilitiesERdS1_S1_S1_S1_(ptr noundef nonnull readonly align 8 captures(none) dereferenceable(160) %0, ptr noundef nonnull writeonly align 8 captures(none) dereferenceable(8) initializes((0, 8)) %1, ptr noundef nonnull writeonly align 8 captures(none) dereferenceable(8) initializes((0, 8)) %2, ptr noundef nonnull writeonly align 8 captures(none) dereferenceable(8) initializes((0, 8)) %3, ptr noundef nonnull writeonly align 8 captures(none) dereferenceable(8) initializes((0, 8)) %4, ptr noundef nonnull writeonly align 8 captures(none) dereferenceable(8) initializes((0, 8)) %5) unnamed_addr #5 align 2 {
  %7 = getelementptr inbounds nuw i8, ptr %0, i64 88
  %8 = load double, ptr %7, align 8, !tbaa !54
  store double %8, ptr %1, align 8, !tbaa !64
  %9 = getelementptr inbounds nuw i8, ptr %0, i64 104
  %10 = load double, ptr %9, align 8, !tbaa !56
  store double %10, ptr %2, align 8, !tbaa !64
  %11 = getelementptr inbounds nuw i8, ptr %0, i64 120
  %12 = load double, ptr %11, align 8, !tbaa !58
  store double %12, ptr %3, align 8, !tbaa !64
  %13 = getelementptr inbounds nuw i8, ptr %0, i64 136
  %14 = load double, ptr %13, align 8, !tbaa !60
  store double %14, ptr %4, align 8, !tbaa !64
  %15 = getelementptr inbounds nuw i8, ptr %0, i64 152
  %16 = load double, ptr %15, align 8, !tbaa !62
  store double %16, ptr %5, align 8, !tbaa !64
  ret void
}